target datalayout = "e-m:e-p270:32:32-p271:32:32-p272:64:64-i64:64-i128:128-f80:128-n8:16:32:64-S128"
target triple = "x86_64-pc-linux-gnu"

%struct._zend_call_info = type { ptr, ptr, ptr, ptr, ptr, ptr, i8, i8, i8, i8, i8, i32, [1 x %struct._zend_send_arg_info] }
%struct._zend_send_arg_info = type { ptr }
%struct._zend_func_info = type { i32, i32, %struct._zend_ssa, ptr, ptr, ptr, %struct._zend_ssa_var_info }
%struct._zend_ssa = type { %struct._zend_cfg, i32, i32, ptr, ptr, ptr, ptr }
%struct._zend_cfg = type { i32, i32, ptr, ptr, ptr, i32 }
%struct._zend_ssa_var_info = type { i32, i8, %struct._zend_ssa_range, ptr }
%struct._zend_ssa_range = type { i64, i64, i8, i8 }
%struct._zend_call_graph = type { i32, ptr, ptr }

; Function Attrs: nounwind uwtable
define internal i32 @zend_bitset_len(i32 noundef %0) #0 {
  %2 = alloca i32, align 4
  store i32 %0, ptr %2, align 4
  %3 = load i32, ptr %2, align 4
  %4 = zext i32 %3 to i64
  %5 = add i64 %4, 63
  %6 = udiv i64 %5, 64
  %7 = trunc i64 %6 to i32
  ret i32 %7
}

; Function Attrs: nounwind uwtable
define internal void @zend_analyze_recursion(ptr noundef %0) #0 {
  %2 = alloca ptr, align 8
  %3 = alloca ptr, align 8
  %4 = alloca ptr, align 8
  %5 = alloca ptr, align 8
  %6 = alloca i32, align 4
  %7 = alloca i32, align 4
  %8 = alloca ptr, align 8
  %9 = alloca i8, align 1
  store ptr %0, ptr %2, align 8
  %10 = load ptr, ptr %2, align 8
  %11 = getelementptr inbounds %struct._zend_call_graph, ptr %10, i32 0, i32 0
  %12 = load i32, ptr %11, align 8
  %13 = call i32 @zend_bitset_len(i32 noundef %12)
  store i32 %13, ptr %7, align 4
  %14 = load i32, ptr %7, align 4
  %15 = sext i32 %14 to i64
  %16 = mul i64 %15, 8
  %17 = icmp ugt i64 %16, 32768
  %18 = xor i1 %17, true
  %19 = xor i1 %18, true
  %20 = zext i1 %19 to i32
  %21 = sext i32 %20 to i64
  %22 = icmp ne i64 %21, 0
  %23 = zext i1 %22 to i8
  store i8 %23, ptr %9, align 1
  br i1 %22, label %24, label %323

24:                                               ; preds = %1
  %25 = load i32, ptr %7, align 4
  %26 = sext i32 %25 to i64
  %27 = mul i64 %26, 8
  %28 = call i1 @llvm.is.constant.i64(i64 %27)
  br i1 %28, label %29, label %316

29:                                               ; preds = %24
  %30 = load i32, ptr %7, align 4
  %31 = sext i32 %30 to i64
  %32 = mul i64 %31, 8
  %33 = icmp ule i64 %32, 8
  br i1 %33, label %34, label %36

34:                                               ; preds = %29
  %35 = call noalias ptr @_emalloc_8()
  br label %314

36:                                               ; preds = %29
  %37 = load i32, ptr %7, align 4
  %38 = sext i32 %37 to i64
  %39 = mul i64 %38, 8
  %40 = icmp ule i64 %39, 16
  br i1 %40, label %41, label %43

41:                                               ; preds = %36
  %42 = call noalias ptr @_emalloc_16()
  br label %312

43:                                               ; preds = %36
  %44 = load i32, ptr %7, align 4
  %45 = sext i32 %44 to i64
  %46 = mul i64 %45, 8
  %47 = icmp ule i64 %46, 24
  br i1 %47, label %48, label %50

48:                                               ; preds = %43
  %49 = call noalias ptr @_emalloc_24()
  br label %310

50:                                               ; preds = %43
  %51 = load i32, ptr %7, align 4
  %52 = sext i32 %51 to i64
  %53 = mul i64 %52, 8
  %54 = icmp ule i64 %53, 32
  br i1 %54, label %55, label %57

55:                                               ; preds = %50
  %56 = call noalias ptr @_emalloc_32()
  br label %308

57:                                               ; preds = %50
  %58 = load i32, ptr %7, align 4
  %59 = sext i32 %58 to i64
  %60 = mul i64 %59, 8
  %61 = icmp ule i64 %60, 40
  br i1 %61, label %62, label %64

62:                                               ; preds = %57
  %63 = call noalias ptr @_emalloc_40()
  br label %306

64:                                               ; preds = %57
  %65 = load i32, ptr %7, align 4
  %66 = sext i32 %65 to i64
  %67 = mul i64 %66, 8
  %68 = icmp ule i64 %67, 48
  br i1 %68, label %69, label %71

69:                                               ; preds = %64
  %70 = call noalias ptr @_emalloc_48()
  br label %304

71:                                               ; preds = %64
  %72 = load i32, ptr %7, align 4
  %73 = sext i32 %72 to i64
  %74 = mul i64 %73, 8
  %75 = icmp ule i64 %74, 56
  br i1 %75, label %76, label %78

76:                                               ; preds = %71
  %77 = call noalias ptr @_emalloc_56()
  br label %302

78:                                               ; preds = %71
  %79 = load i32, ptr %7, align 4
  %80 = sext i32 %79 to i64
  %81 = mul i64 %80, 8
  %82 = icmp ule i64 %81, 64
  br i1 %82, label %83, label %85

83:                                               ; preds = %78
  %84 = call noalias ptr @_emalloc_64()
  br label %300

85:                                               ; preds = %78
  %86 = load i32, ptr %7, align 4
  %87 = sext i32 %86 to i64
  %88 = mul i64 %87, 8
  %89 = icmp ule i64 %88, 80
  br i1 %89, label %90, label %92

90:                                               ; preds = %85
  %91 = call noalias ptr @_emalloc_80()
  br label %298

92:                                               ; preds = %85
  %93 = load i32, ptr %7, align 4
  %94 = sext i32 %93 to i64
  %95 = mul i64 %94, 8
  %96 = icmp ule i64 %95, 96
  br i1 %96, label %97, label %99

97:                                               ; preds = %92
  %98 = call noalias ptr @_emalloc_96()
  br label %296

99:                                               ; preds = %92
  %100 = load i32, ptr %7, align 4
  %101 = sext i32 %100 to i64
  %102 = mul i64 %101, 8
  %103 = icmp ule i64 %102, 112
  br i1 %103, label %104, label %106

104:                                              ; preds = %99
  %105 = call noalias ptr @_emalloc_112()
  br label %294

106:                                              ; preds = %99
  %107 = load i32, ptr %7, align 4
  %108 = sext i32 %107 to i64
  %109 = mul i64 %108, 8
  %110 = icmp ule i64 %109, 128
  br i1 %110, label %111, label %113

111:                                              ; preds = %106
  %112 = call noalias ptr @_emalloc_128()
  br label %292

113:                                              ; preds = %106
  %114 = load i32, ptr %7, align 4
  %115 = sext i32 %114 to i64
  %116 = mul i64 %115, 8
  %117 = icmp ule i64 %116, 160
  br i1 %117, label %118, label %120

118:                                              ; preds = %113
  %119 = call noalias ptr @_emalloc_160()
  br label %290

120:                                              ; preds = %113
  %121 = load i32, ptr %7, align 4
  %122 = sext i32 %121 to i64
  %123 = mul i64 %122, 8
  %124 = icmp ule i64 %123, 192
  br i1 %124, label %125, label %127

125:                                              ; preds = %120
  %126 = call noalias ptr @_emalloc_192()
  br label %288

127:                                              ; preds = %120
  %128 = load i32, ptr %7, align 4
  %129 = sext i32 %128 to i64
  %130 = mul i64 %129, 8
  %131 = icmp ule i64 %130, 224
  br i1 %131, label %132, label %134

132:                                              ; preds = %127
  %133 = call noalias ptr @_emalloc_224()
  br label %286

134:                                              ; preds = %127
  %135 = load i32, ptr %7, align 4
  %136 = sext i32 %135 to i64
  %137 = mul i64 %136, 8
  %138 = icmp ule i64 %137, 256
  br i1 %138, label %139, label %141

139:                                              ; preds = %134
  %140 = call noalias ptr @_emalloc_256()
  br label %284

141:                                              ; preds = %134
  %142 = load i32, ptr %7, align 4
  %143 = sext i32 %142 to i64
  %144 = mul i64 %143, 8
  %145 = icmp ule i64 %144, 320
  br i1 %145, label %146, label %148

146:                                              ; preds = %141
  %147 = call noalias ptr @_emalloc_320()
  br label %282

148:                                              ; preds = %141
  %149 = load i32, ptr %7, align 4
  %150 = sext i32 %149 to i64
  %151 = mul i64 %150, 8
  %152 = icmp ule i64 %151, 384
  br i1 %152, label %153, label %155

153:                                              ; preds = %148
  %154 = call noalias ptr @_emalloc_384()
  br label %280

155:                                              ; preds = %148
  %156 = load i32, ptr %7, align 4
  %157 = sext i32 %156 to i64
  %158 = mul i64 %157, 8
  %159 = icmp ule i64 %158, 448
  br i1 %159, label %160, label %162

160:                                              ; preds = %155
  %161 = call noalias ptr @_emalloc_448()
  br label %278

162:                                              ; preds = %155
  %163 = load i32, ptr %7, align 4
  %164 = sext i32 %163 to i64
  %165 = mul i64 %164, 8
  %166 = icmp ule i64 %165, 512
  br i1 %166, label %167, label %169

167:                                              ; preds = %162
  %168 = call noalias ptr @_emalloc_512()
  br label %276

169:                                              ; preds = %162
  %170 = load i32, ptr %7, align 4
  %171 = sext i32 %170 to i64
  %172 = mul i64 %171, 8
  %173 = icmp ule i64 %172, 640
  br i1 %173, label %174, label %176

174:                                              ; preds = %169
  %175 = call noalias ptr @_emalloc_640()
  br label %274

176:                                              ; preds = %169
  %177 = load i32, ptr %7, align 4
  %178 = sext i32 %177 to i64
  %179 = mul i64 %178, 8
  %180 = icmp ule i64 %179, 768
  br i1 %180, label %181, label %183

181:                                              ; preds = %176
  %182 = call noalias ptr @_emalloc_768()
  br label %272

183:                                              ; preds = %176
  %184 = load i32, ptr %7, align 4
  %185 = sext i32 %184 to i64
  %186 = mul i64 %185, 8
  %187 = icmp ule i64 %186, 896
  br i1 %187, label %188, label %190

188:                                              ; preds = %183
  %189 = call noalias ptr @_emalloc_896()
  br label %270

190:                                              ; preds = %183
  %191 = load i32, ptr %7, align 4
  %192 = sext i32 %191 to i64
  %193 = mul i64 %192, 8
  %194 = icmp ule i64 %193, 1024
  br i1 %194, label %195, label %197

195:                                              ; preds = %190
  %196 = call noalias ptr @_emalloc_1024()
  br label %268

197:                                              ; preds = %190
  %198 = load i32, ptr %7, align 4
  %199 = sext i32 %198 to i64
  %200 = mul i64 %199, 8
  %201 = icmp ule i64 %200, 1280
  br i1 %201, label %202, label %204

202:                                              ; preds = %197
  %203 = call noalias ptr @_emalloc_1280()
  br label %266

204:                                              ; preds = %197
  %205 = load i32, ptr %7, align 4
  %206 = sext i32 %205 to i64
  %207 = mul i64 %206, 8
  %208 = icmp ule i64 %207, 1536
  br i1 %208, label %209, label %211

209:                                              ; preds = %204
  %210 = call noalias ptr @_emalloc_1536()
  br label %264

211:                                              ; preds = %204
  %212 = load i32, ptr %7, align 4
  %213 = sext i32 %212 to i64
  %214 = mul i64 %213, 8
  %215 = icmp ule i64 %214, 1792
  br i1 %215, label %216, label %218

216:                                              ; preds = %211
  %217 = call noalias ptr @_emalloc_1792()
  br label %262

218:                                              ; preds = %211
  %219 = load i32, ptr %7, align 4
  %220 = sext i32 %219 to i64
  %221 = mul i64 %220, 8
  %222 = icmp ule i64 %221, 2048
  br i1 %222, label %223, label %225

223:                                              ; preds = %218
  %224 = call noalias ptr @_emalloc_2048()
  br label %260

225:                                              ; preds = %218
  %226 = load i32, ptr %7, align 4
  %227 = sext i32 %226 to i64
  %228 = mul i64 %227, 8
  %229 = icmp ule i64 %228, 2560
  br i1 %229, label %230, label %232

230:                                              ; preds = %225
  %231 = call noalias ptr @_emalloc_2560()
  br label %258

232:                                              ; preds = %225
  %233 = load i32, ptr %7, align 4
  %234 = sext i32 %233 to i64
  %235 = mul i64 %234, 8
  %236 = icmp ule i64 %235, 3072
  br i1 %236, label %237, label %239

237:                                              ; preds = %232
  %238 = call noalias ptr @_emalloc_3072()
  br label %256

239:                                              ; preds = %232
  %240 = load i32, ptr %7, align 4
  %241 = sext i32 %240 to i64
  %242 = mul i64 %241, 8
  %243 = icmp ule i64 %242, 2093056
  br i1 %243, label %244, label %249

244:                                              ; preds = %239
  %245 = load i32, ptr %7, align 4
  %246 = sext i32 %245 to i64
  %247 = mul i64 %246, 8
  %248 = call noalias ptr @_emalloc_large(i64 noundef %247) #6
  br label %254

249:                                              ; preds = %239
  %250 = load i32, ptr %7, align 4
  %251 = sext i32 %250 to i64
  %252 = mul i64 %251, 8
  %253 = call noalias ptr @_emalloc_huge(i64 noundef %252) #6
  br label %254

254:                                              ; preds = %249, %244
  %255 = phi ptr [ %248, %244 ], [ %253, %249 ]
  br label %256

256:                                              ; preds = %254, %237
  %257 = phi ptr [ %238, %237 ], [ %255, %254 ]
  br label %258

258:                                              ; preds = %256, %230
  %259 = phi ptr [ %231, %230 ], [ %257, %256 ]
  br label %260

260:                                              ; preds = %258, %223
  %261 = phi ptr [ %224, %223 ], [ %259, %258 ]
  br label %262

262:                                              ; preds = %260, %216
  %263 = phi ptr [ %217, %216 ], [ %261, %260 ]
  br label %264

264:                                              ; preds = %262, %209
  %265 = phi ptr [ %210, %209 ], [ %263, %262 ]
  br label %266

266:                                              ; preds = %264, %202
  %267 = phi ptr [ %203, %202 ], [ %265, %264 ]
  br label %268

268:                                              ; preds = %266, %195
  %269 = phi ptr [ %196, %195 ], [ %267, %266 ]
  br label %270

270:                                              ; preds = %268, %188
  %271 = phi ptr [ %189, %188 ], [ %269, %268 ]
  br label %272

272:                                              ; preds = %270, %181
  %273 = phi ptr [ %182, %181 ], [ %271, %270 ]
  br label %274

274:                                              ; preds = %272, %174
  %275 = phi ptr [ %175, %174 ], [ %273, %272 ]
  br label %276

276:                                              ; preds = %274, %167
  %277 = phi ptr [ %168, %167 ], [ %275, %274 ]
  br label %278

278:                                              ; preds = %276, %160
  %279 = phi ptr [ %161, %160 ], [ %277, %276 ]
  br label %280

280:                                              ; preds = %278, %153
  %281 = phi ptr [ %154, %153 ], [ %279, %278 ]
  br label %282

282:                                              ; preds = %280, %146
  %283 = phi ptr [ %147, %146 ], [ %281, %280 ]
  br label %284

284:                                              ; preds = %282, %139
  %285 = phi ptr [ %140, %139 ], [ %283, %282 ]
  br label %286

286:                                              ; preds = %284, %132
  %287 = phi ptr [ %133, %132 ], [ %285, %284 ]
  br label %288

288:                                              ; preds = %286, %125
  %289 = phi ptr [ %126, %125 ], [ %287, %286 ]
  br label %290

290:                                              ; preds = %288, %118
  %291 = phi ptr [ %119, %118 ], [ %289, %288 ]
  br label %292

292:                                              ; preds = %290, %111
  %293 = phi ptr [ %112, %111 ], [ %291, %290 ]
  br label %294

294:                                              ; preds = %292, %104
  %295 = phi ptr [ %105, %104 ], [ %293, %292 ]
  br label %296

296:                                              ; preds = %294, %97
  %297 = phi ptr [ %98, %97 ], [ %295, %294 ]
  br label %298

298:                                              ; preds = %296, %90
  %299 = phi ptr [ %91, %90 ], [ %297, %296 ]
  br label %300

300:                                              ; preds = %298, %83
  %301 = phi ptr [ %84, %83 ], [ %299, %298 ]
  br label %302

302:                                              ; preds = %300, %76
  %303 = phi ptr [ %77, %76 ], [ %301, %300 ]
  br label %304

304:                                              ; preds = %302, %69
  %305 = phi ptr [ %70, %69 ], [ %303, %302 ]
  br label %306

306:                                              ; preds = %304, %62
  %307 = phi ptr [ %63, %62 ], [ %305, %304 ]
  br label %308

308:                                              ; preds = %306, %55
  %309 = phi ptr [ %56, %55 ], [ %307, %306 ]
  br label %310

310:                                              ; preds = %308, %48
  %311 = phi ptr [ %49, %48 ], [ %309, %308 ]
  br label %312

312:                                              ; preds = %310, %41
  %313 = phi ptr [ %42, %41 ], [ %311, %310 ]
  br label %314

314:                                              ; preds = %312, %34
  %315 = phi ptr [ %35, %34 ], [ %313, %312 ]
  br label %321

316:                                              ; preds = %24
  %317 = load i32, ptr %7, align 4
  %318 = sext i32 %317 to i64
  %319 = mul i64 %318, 8
  %320 = call noalias ptr @_emalloc(i64 noundef %319) #6
  br label %321

321:                                              ; preds = %316, %314
  %322 = phi ptr [ %315, %314 ], [ %320, %316 ]
  br label %328

323:                                              ; preds = %1
  %324 = load i32, ptr %7, align 4
  %325 = sext i32 %324 to i64
  %326 = mul i64 %325, 8
  %327 = alloca i8, i64 %326, align 16
  br label %328

328:                                              ; preds = %323, %321
  %329 = phi ptr [ %322, %321 ], [ %327, %323 ]
  store ptr %329, ptr %8, align 8
  store i32 0, ptr %6, align 4
  br label %330

330:                                              ; preds = %400, %328
  %331 = load i32, ptr %6, align 4
  %332 = load ptr, ptr %2, align 8
  %333 = getelementptr inbounds %struct._zend_call_graph, ptr %332, i32 0, i32 0
  %334 = load i32, ptr %333, align 8
  %335 = icmp slt i32 %331, %334
  br i1 %335, label %336, label %403

336:                                              ; preds = %330
  %337 = load ptr, ptr %2, align 8
  %338 = getelementptr inbounds %struct._zend_call_graph, ptr %337, i32 0, i32 1
  %339 = load ptr, ptr %338, align 8
  %340 = load i32, ptr %6, align 4
  %341 = sext i32 %340 to i64
  %342 = getelementptr inbounds ptr, ptr %339, i64 %341
  %343 = load ptr, ptr %342, align 8
  store ptr %343, ptr %3, align 8
  %344 = load ptr, ptr %2, align 8
  %345 = getelementptr inbounds %struct._zend_call_graph, ptr %344, i32 0, i32 2
  %346 = load ptr, ptr %345, align 8
  %347 = load i32, ptr %6, align 4
  %348 = sext i32 %347 to i64
  %349 = getelementptr inbounds %struct._zend_func_info, ptr %346, i64 %348
  store ptr %349, ptr %4, align 8
  %350 = load ptr, ptr %4, align 8
  %351 = getelementptr inbounds %struct._zend_func_info, ptr %350, i32 0, i32 3
  %352 = load ptr, ptr %351, align 8
  store ptr %352, ptr %5, align 8
  br label %353

353:                                              ; preds = %395, %336
  %354 = load ptr, ptr %5, align 8
  %355 = icmp ne ptr %354, null
  br i1 %355, label %356, label %399

356:                                              ; preds = %353
  %357 = load ptr, ptr %5, align 8
  %358 = getelementptr inbounds %struct._zend_call_info, ptr %357, i32 0, i32 9
  %359 = load i8, ptr %358, align 1
  %360 = trunc i8 %359 to i1
  br i1 %360, label %361, label %362

361:                                              ; preds = %356
  br label %395

362:                                              ; preds = %356
  %363 = load ptr, ptr %5, align 8
  %364 = getelementptr inbounds %struct._zend_call_info, ptr %363, i32 0, i32 0
  %365 = load ptr, ptr %364, align 8
  %366 = load ptr, ptr %3, align 8
  %367 = icmp eq ptr %365, %366
  br i1 %367, label %368, label %375

368:                                              ; preds = %362
  %369 = load ptr, ptr %5, align 8
  %370 = getelementptr inbounds %struct._zend_call_info, ptr %369, i32 0, i32 6
  store i8 1, ptr %370, align 8
  %371 = load ptr, ptr %4, align 8
  %372 = getelementptr inbounds %struct._zend_func_info, ptr %371, i32 0, i32 1
  %373 = load i32, ptr %372, align 4
  %374 = or i32 %373, 384
  store i32 %374, ptr %372, align 4
  br label %394

375:                                              ; preds = %362
  %376 = load ptr, ptr %8, align 8
  %377 = load i32, ptr %7, align 4
  %378 = sext i32 %377 to i64
  %379 = mul i64 8, %378
  call void @llvm.memset.p0.i64(ptr align 8 %376, i8 0, i64 %379, i1 false)
  %380 = load ptr, ptr %3, align 8
  %381 = load ptr, ptr %5, align 8
  %382 = getelementptr inbounds %struct._zend_call_info, ptr %381, i32 0, i32 0
  %383 = load ptr, ptr %382, align 8
  %384 = load ptr, ptr %8, align 8
  %385 = call zeroext i1 @zend_is_indirectly_recursive(ptr noundef %380, ptr noundef %383, ptr noundef %384)
  br i1 %385, label %386, label %393

386:                                              ; preds = %375
  %387 = load ptr, ptr %5, align 8
  %388 = getelementptr inbounds %struct._zend_call_info, ptr %387, i32 0, i32 6
  store i8 1, ptr %388, align 8
  %389 = load ptr, ptr %4, align 8
  %390 = getelementptr inbounds %struct._zend_func_info, ptr %389, i32 0, i32 1
  %391 = load i32, ptr %390, align 4
  %392 = or i32 %391, 640
  store i32 %392, ptr %390, align 4
  br label %393

393:                                              ; preds = %386, %375
  br label %394

394:                                              ; preds = %393, %368
  br label %395

395:                                              ; preds = %394, %361
  %396 = load ptr, ptr %5, align 8
  %397 = getelementptr inbounds %struct._zend_call_info, ptr %396, i32 0, i32 4
  %398 = load ptr, ptr %397, align 8
  store ptr %398, ptr %5, align 8
  br label %353

399:                                              ; preds = %353
  br label %400

400:                                              ; preds = %399
  %401 = load i32, ptr %6, align 4
  %402 = add nsw i32 %401, 1
  store i32 %402, ptr %6, align 4
  br label %330

403:                                              ; preds = %330
  br label %404

404:                                              ; preds = %403
  %405 = load i8, ptr %9, align 1
  %406 = trunc i8 %405 to i1
  %407 = xor i1 %406, true
  %408 = xor i1 %407, true
  %409 = zext i1 %408 to i32
  %410 = sext i32 %409 to i64
  %411 = icmp ne i64 %410, 0
  br i1 %411, label %412, label %414

412:                                              ; preds = %404
  %413 = load ptr, ptr %8, align 8
  call void @_efree(ptr noundef %413)
  br label %414

414:                                              ; preds = %412, %404
  br label %415

415:                                              ; preds = %414
  ret void
}