; Function Attrs: nounwind uwtable
define internal fastcc void @zend_analyze_recursion(ptr nocapture noundef readonly %0) unnamed_addr #0 {
  %2 = load i32, ptr %0, align 8
  %3 = zext i32 %2 to i64
  %4 = add nuw nsw i64 %3, 63
  %5 = lshr i64 %4, 6
  %6 = trunc i64 %5 to i32
  %7 = shl nuw nsw i64 %5, 3
  %8 = icmp ugt i32 %6, 4096
  br i1 %8, label %9, label %11

9:                                                ; preds = %1
  %10 = tail call noalias ptr @_emalloc(i64 noundef %7) #9
  br label %13

11:                                               ; preds = %1
  %12 = alloca i8, i64 %7, align 16
  br label %13

13:                                               ; preds = %9, %11
  %14 = phi ptr [ %12, %11 ], [ %10, %9 ]
  %15 = load i32, ptr %0, align 8
  %16 = icmp sgt i32 %15, 0
  br i1 %16, label %.lr.ph70, label %._crit_edge71

.lr.ph70:                                         ; preds = %13
  %17 = getelementptr inbounds i8, ptr %0, i64 8
  %18 = getelementptr inbounds i8, ptr %0, i64 16
  br label %19

19:                                               ; preds = %.lr.ph70, %._crit_edge
  %20 = phi i32 [ %15, %.lr.ph70 ], [ %42, %._crit_edge ]
  %indvars.iv = phi i64 [ 0, %.lr.ph70 ], [ %indvars.iv.next, %._crit_edge ]
  %21 = load ptr, ptr %17, align 8
  %22 = getelementptr inbounds ptr, ptr %21, i64 %indvars.iv
  %23 = load ptr, ptr %22, align 8
  %24 = load ptr, ptr %18, align 8
  %25 = getelementptr inbounds %struct._zend_func_info, ptr %24, i64 %indvars.iv
  %26 = getelementptr inbounds i8, ptr %25, i64 88
  %.065 = load ptr, ptr %26, align 8
  %.not66 = icmp eq ptr %.065, null
  br i1 %.not66, label %._crit_edge, label %.lr.ph

.lr.ph:                                           ; preds = %19
  %27 = getelementptr inbounds i8, ptr %25, i64 4
  br label %28

28:                                               ; preds = %.lr.ph, %40
  %.067 = phi ptr [ %.065, %.lr.ph ], [ %.0, %40 ]
  %29 = getelementptr inbounds i8, ptr %.067, i64 51
  %30 = load i8, ptr %29, align 1
  %31 = and i8 %30, 1
  %.not64 = icmp eq i8 %31, 0
  br i1 %.not64, label %32, label %40

32:                                               ; preds = %28
  %33 = load ptr, ptr %.067, align 8
  %34 = icmp eq ptr %33, %23
  br i1 %34, label %.sink.split, label %35

35:                                               ; preds = %32
  call void @llvm.memset.p0.i64(ptr align 8 %14, i8 0, i64 %7, i1 false)
  %36 = call fastcc zeroext i1 @zend_is_indirectly_recursive(ptr noundef %23, ptr noundef %33, ptr noundef %14)
  br i1 %36, label %.sink.split, label %40

.sink.split:                                      ; preds = %35, %32
  %.sink74 = phi i32 [ 384, %32 ], [ 640, %35 ]
  %37 = getelementptr inbounds i8, ptr %.067, i64 48
  store i8 1, ptr %37, align 8
  %38 = load i32, ptr %27, align 4
  %39 = or i32 %38, %.sink74
  store i32 %39, ptr %27, align 4
  br label %40

40:                                               ; preds = %.sink.split, %35, %28
  %41 = getelementptr inbounds i8, ptr %.067, i64 32
  %.0 = load ptr, ptr %41, align 8
  %.not = icmp eq ptr %.0, null
  br i1 %.not, label %._crit_edge.loopexit, label %28

._crit_edge.loopexit:                             ; preds = %40
  %.pre = load i32, ptr %0, align 8
  br label %._crit_edge

._crit_edge:                                      ; preds = %._crit_edge.loopexit, %19
  %42 = phi i32 [ %.pre, %._crit_edge.loopexit ], [ %20, %19 ]
  %indvars.iv.next = add nuw nsw i64 %indvars.iv, 1
  %43 = sext i32 %42 to i64
  %44 = icmp slt i64 %indvars.iv.next, %43
  br i1 %44, label %19, label %._crit_edge71

._crit_edge71:                                    ; preds = %._crit_edge, %13
  br i1 %8, label %45, label %46

45:                                               ; preds = %._crit_edge71
  call void @_efree(ptr noundef %14) #10
  br label %46

46:                                               ; preds = %._crit_edge71, %45
  ret void
}